target datalayout = "e-m:e-p270:32:32-p271:32:32-p272:64:64-i64:64-i128:128-f80:128-n8:16:32:64-S128"
target triple = "x86_64-pc-linux-gnu"

@.str.2 = private unnamed_addr constant [103 x i8] c"generated/home/dtcxzyw/WorkSpace/Projects/compilers/llvm-opt-benchmark/bench/hdf5/hdf5/src/H5FScache.c\00", align 1
@__func__.H5FS__cache_hdr_verify_chksum = private unnamed_addr constant [30 x i8] c"H5FS__cache_hdr_verify_chksum\00", align 1
@H5E_FSPACE_g = external global i64, align 8
@H5E_CANTGET_g = external global i64, align 8
@.str.3 = private unnamed_addr constant [20 x i8] c"can't get checksums\00", align 1

; Function Attrs: nounwind uwtable
define internal i32 @H5FS__cache_hdr_verify_chksum(ptr noundef %0, i64 noundef %1, ptr noundef %2) #0 {
  %4 = alloca ptr, align 8
  %5 = alloca i64, align 8
  %6 = alloca ptr, align 8
  %7 = alloca ptr, align 8
  %8 = alloca i32, align 4
  %9 = alloca i32, align 4
  %10 = alloca i32, align 4
  %11 = alloca i8, align 1
  store ptr %0, ptr %4, align 8
  store i64 %1, ptr %5, align 8
  store ptr %2, ptr %6, align 8
  %12 = load ptr, ptr %4, align 8
  store ptr %12, ptr %7, align 8
  store i32 1, ptr %10, align 4
  store i8 0, ptr %11, align 1
  %13 = load ptr, ptr %7, align 8
  %14 = load i64, ptr %5, align 8
  %15 = call i32 @H5F_get_checksums(ptr noundef %13, i64 noundef %14, ptr noundef %8, ptr noundef %9)
  %16 = icmp slt i32 %15, 0
  br i1 %16, label %17, label %32

17:                                               ; preds = %3
  br label %18

18:                                               ; preds = %17
  br label %19

19:                                               ; preds = %18
  br label %20

20:                                               ; preds = %19
  %21 = load i64, ptr @H5E_FSPACE_g, align 8
  %22 = load i64, ptr @H5E_CANTGET_g, align 8
  %23 = call i32 (ptr, ptr, i32, i64, i64, ptr, ...) @H5E_printf_stack(ptr noundef @.str.2, ptr noundef @__func__.H5FS__cache_hdr_verify_chksum, i32 noundef 194, i64 noundef %21, i64 noundef %22, ptr noundef @.str.3)
  br label %24

24:                                               ; preds = %20
  store i8 1, ptr %11, align 1
  %25 = load i8, ptr %11, align 1
  %26 = trunc i8 %25 to i1
  %27 = zext i1 %26 to i8
  store i8 %27, ptr %11, align 1
  br label %28

28:                                               ; preds = %24
  br label %29

29:                                               ; preds = %28
  store i32 -1, ptr %10, align 4
  br label %38

30:                                               ; No predecessors!
  br label %31

31:                                               ; preds = %30
  br label %32

32:                                               ; preds = %31, %3
  %33 = load i32, ptr %8, align 4
  %34 = load i32, ptr %9, align 4
  %35 = icmp ne i32 %33, %34
  br i1 %35, label %36, label %37

36:                                               ; preds = %32
  store i32 0, ptr %10, align 4
  br label %37

37:                                               ; preds = %36, %32
  br label %38

38:                                               ; preds = %37, %29
  %39 = load i32, ptr %10, align 4
  ret i32 %39
}